target datalayout = "e-m:e-p270:32:32-p271:32:32-p272:64:64-i64:64-i128:128-f80:128-n8:16:32:64-S128"
target triple = "x86_64-pc-linux-gnu"

%"class.icu_77::RBBINode" = type { i32, ptr, ptr, ptr, ptr, i32, %"class.icu_77::UnicodeString", i32, i32, i8, i32, i8, i8, i8, ptr, ptr, ptr }
%"class.icu_77::UnicodeString" = type { %"class.icu_77::Replaceable", %"union.icu_77::UnicodeString::StackBufferOrFields" }
%"class.icu_77::Replaceable" = type { %"class.icu_77::UObject" }
%"class.icu_77::UObject" = type { ptr }
%"union.icu_77::UnicodeString::StackBufferOrFields" = type { %struct.anon.0, [32 x i8] }
%struct.anon.0 = type { i16, i32, i32, ptr }

@_ZN6icu_778RBBINodeD1Ev = unnamed_addr alias void (ptr), ptr @_ZN6icu_778RBBINodeD2Ev

; Function Attrs: inlinehint mustprogress nounwind uwtable
define internal noundef signext i8 @_ZL9U_FAILURE10UErrorCode(i32 noundef %0) #2 {
  %2 = alloca i32, align 4
  store i32 %0, ptr %2, align 4, !tbaa !15
  %3 = load i32, ptr %2, align 4, !tbaa !15
  %4 = icmp sgt i32 %3, 0
  %5 = zext i1 %4 to i8
  ret i8 %5
}

; Function Attrs: mustprogress uwtable
define void @_ZN6icu_778RBBINode11flattenSetsER10UErrorCodei(ptr noundef nonnull align 8 dereferenceable(160) %0, ptr noundef nonnull align 4 dereferenceable(4) %1, i32 noundef %2) #1 align 2 {
  %4 = alloca ptr, align 8
  %5 = alloca ptr, align 8
  %6 = alloca i32, align 4
  %7 = alloca ptr, align 8
  %8 = alloca ptr, align 8
  %9 = alloca ptr, align 8
  %10 = alloca i32, align 4
  %11 = alloca ptr, align 8
  %12 = alloca ptr, align 8
  %13 = alloca ptr, align 8
  store ptr %0, ptr %4, align 8, !tbaa !23
  store ptr %1, ptr %5, align 8, !tbaa !22
  store i32 %2, ptr %6, align 4, !tbaa !14
  %14 = load ptr, ptr %4, align 8
  %15 = load ptr, ptr %5, align 8, !tbaa !22
  %16 = load i32, ptr %15, align 4, !tbaa !15
  %17 = call noundef signext i8 @_ZL9U_FAILURE10UErrorCode(i32 noundef %16)
  %18 = icmp ne i8 %17, 0
  br i1 %18, label %19, label %20

19:                                               ; preds = %3
  br label %129

20:                                               ; preds = %3
  %21 = load i32, ptr %6, align 4, !tbaa !14
  %22 = icmp sgt i32 %21, 3500
  br i1 %22, label %23, label %25

23:                                               ; preds = %20
  %24 = load ptr, ptr %5, align 8, !tbaa !22
  store i32 31, ptr %24, align 4, !tbaa !15
  br label %129

25:                                               ; preds = %20
  %26 = getelementptr inbounds nuw %"class.icu_77::RBBINode", ptr %14, i32 0, i32 2
  %27 = load ptr, ptr %26, align 8, !tbaa !36
  %28 = icmp ne ptr %27, null
  br i1 %28, label %29, label %77

29:                                               ; preds = %25
  %30 = getelementptr inbounds nuw %"class.icu_77::RBBINode", ptr %14, i32 0, i32 2
  %31 = load ptr, ptr %30, align 8, !tbaa !36
  %32 = getelementptr inbounds nuw %"class.icu_77::RBBINode", ptr %31, i32 0, i32 0
  %33 = load i32, ptr %32, align 8, !tbaa !27
  %34 = icmp eq i32 %33, 0
  br i1 %34, label %35, label %70

35:                                               ; preds = %29
  call void @llvm.lifetime.start.p0(i64 8, ptr %7) #10
  %36 = getelementptr inbounds nuw %"class.icu_77::RBBINode", ptr %14, i32 0, i32 2
  %37 = load ptr, ptr %36, align 8, !tbaa !36
  store ptr %37, ptr %7, align 8, !tbaa !23
  call void @llvm.lifetime.start.p0(i64 8, ptr %8) #10
  %38 = load ptr, ptr %7, align 8, !tbaa !23
  %39 = getelementptr inbounds nuw %"class.icu_77::RBBINode", ptr %38, i32 0, i32 2
  %40 = load ptr, ptr %39, align 8, !tbaa !36
  store ptr %40, ptr %8, align 8, !tbaa !23
  call void @llvm.lifetime.start.p0(i64 8, ptr %9) #10
  %41 = load ptr, ptr %8, align 8, !tbaa !23
  %42 = getelementptr inbounds nuw %"class.icu_77::RBBINode", ptr %41, i32 0, i32 2
  %43 = load ptr, ptr %42, align 8, !tbaa !36
  store ptr %43, ptr %9, align 8, !tbaa !23
  %44 = load ptr, ptr %9, align 8, !tbaa !23
  %45 = load ptr, ptr %5, align 8, !tbaa !22
  %46 = load i32, ptr %6, align 4, !tbaa !14
  %47 = add nsw i32 %46, 1
  %48 = call noundef ptr @_ZN6icu_778RBBINode9cloneTreeER10UErrorCodei(ptr noundef nonnull align 8 dereferenceable(160) %44, ptr noundef nonnull align 4 dereferenceable(4) %45, i32 noundef %47)
  %49 = getelementptr inbounds nuw %"class.icu_77::RBBINode", ptr %14, i32 0, i32 2
  store ptr %48, ptr %49, align 8, !tbaa !36
  %50 = load ptr, ptr %5, align 8, !tbaa !22
  %51 = load i32, ptr %50, align 4, !tbaa !15
  %52 = call noundef signext i8 @_ZL9U_FAILURE10UErrorCode(i32 noundef %51)
  %53 = icmp ne i8 %52, 0
  br i1 %53, label %54, label %59

54:                                               ; preds = %35
  %55 = load ptr, ptr %7, align 8, !tbaa !23
  %56 = icmp eq ptr %55, null
  br i1 %56, label %58, label %57

57:                                               ; preds = %54
  call void @_ZN6icu_778RBBINodeD1Ev(ptr noundef nonnull align 8 dereferenceable(160) %55) #10
  call void @_ZN6icu_777UMemorydlEPv(ptr noundef %55) #10
  br label %58

58:                                               ; preds = %57, %54
  store i32 1, ptr %10, align 4
  br label %67

59:                                               ; preds = %35
  %60 = getelementptr inbounds nuw %"class.icu_77::RBBINode", ptr %14, i32 0, i32 2
  %61 = load ptr, ptr %60, align 8, !tbaa !36
  %62 = getelementptr inbounds nuw %"class.icu_77::RBBINode", ptr %61, i32 0, i32 1
  store ptr %14, ptr %62, align 8, !tbaa !35
  %63 = load ptr, ptr %7, align 8, !tbaa !23
  %64 = icmp eq ptr %63, null
  br i1 %64, label %66, label %65

65:                                               ; preds = %59
  call void @_ZN6icu_778RBBINodeD1Ev(ptr noundef nonnull align 8 dereferenceable(160) %63) #10
  call void @_ZN6icu_777UMemorydlEPv(ptr noundef %63) #10
  br label %66

66:                                               ; preds = %65, %59
  store i32 0, ptr %10, align 4
  br label %67

67:                                               ; preds = %66, %58
  call void @llvm.lifetime.end.p0(i64 8, ptr %9) #10
  call void @llvm.lifetime.end.p0(i64 8, ptr %8) #10
  call void @llvm.lifetime.end.p0(i64 8, ptr %7) #10
  %68 = load i32, ptr %10, align 4
  switch i32 %68, label %130 [
    i32 0, label %69
    i32 1, label %129
  ]

69:                                               ; preds = %67
  br label %76

70:                                               ; preds = %29
  %71 = getelementptr inbounds nuw %"class.icu_77::RBBINode", ptr %14, i32 0, i32 2
  %72 = load ptr, ptr %71, align 8, !tbaa !36
  %73 = load ptr, ptr %5, align 8, !tbaa !22
  %74 = load i32, ptr %6, align 4, !tbaa !14
  %75 = add nsw i32 %74, 1
  call void @_ZN6icu_778RBBINode11flattenSetsER10UErrorCodei(ptr noundef nonnull align 8 dereferenceable(160) %72, ptr noundef nonnull align 4 dereferenceable(4) %73, i32 noundef %75)
  br label %76

76:                                               ; preds = %70, %69
  br label %77

77:                                               ; preds = %76, %25
  %78 = getelementptr inbounds nuw %"class.icu_77::RBBINode", ptr %14, i32 0, i32 3
  %79 = load ptr, ptr %78, align 8, !tbaa !37
  %80 = icmp ne ptr %79, null
  br i1 %80, label %81, label %129

81:                                               ; preds = %77
  %82 = getelementptr inbounds nuw %"class.icu_77::RBBINode", ptr %14, i32 0, i32 3
  %83 = load ptr, ptr %82, align 8, !tbaa !37
  %84 = getelementptr inbounds nuw %"class.icu_77::RBBINode", ptr %83, i32 0, i32 0
  %85 = load i32, ptr %84, align 8, !tbaa !27
  %86 = icmp eq i32 %85, 0
  br i1 %86, label %87, label %122

87:                                               ; preds = %81
  call void @llvm.lifetime.start.p0(i64 8, ptr %11) #10
  %88 = getelementptr inbounds nuw %"class.icu_77::RBBINode", ptr %14, i32 0, i32 3
  %89 = load ptr, ptr %88, align 8, !tbaa !37
  store ptr %89, ptr %11, align 8, !tbaa !23
  call void @llvm.lifetime.start.p0(i64 8, ptr %12) #10
  %90 = load ptr, ptr %11, align 8, !tbaa !23
  %91 = getelementptr inbounds nuw %"class.icu_77::RBBINode", ptr %90, i32 0, i32 2
  %92 = load ptr, ptr %91, align 8, !tbaa !36
  store ptr %92, ptr %12, align 8, !tbaa !23
  call void @llvm.lifetime.start.p0(i64 8, ptr %13) #10
  %93 = load ptr, ptr %12, align 8, !tbaa !23
  %94 = getelementptr inbounds nuw %"class.icu_77::RBBINode", ptr %93, i32 0, i32 2
  %95 = load ptr, ptr %94, align 8, !tbaa !36
  store ptr %95, ptr %13, align 8, !tbaa !23
  %96 = load ptr, ptr %13, align 8, !tbaa !23
  %97 = load ptr, ptr %5, align 8, !tbaa !22
  %98 = load i32, ptr %6, align 4, !tbaa !14
  %99 = add nsw i32 %98, 1
  %100 = call noundef ptr @_ZN6icu_778RBBINode9cloneTreeER10UErrorCodei(ptr noundef nonnull align 8 dereferenceable(160) %96, ptr noundef nonnull align 4 dereferenceable(4) %97, i32 noundef %99)
  %101 = getelementptr inbounds nuw %"class.icu_77::RBBINode", ptr %14, i32 0, i32 3
  store ptr %100, ptr %101, align 8, !tbaa !37
  %102 = load ptr, ptr %5, align 8, !tbaa !22
  %103 = load i32, ptr %102, align 4, !tbaa !15
  %104 = call noundef signext i8 @_ZL9U_FAILURE10UErrorCode(i32 noundef %103)
  %105 = icmp ne i8 %104, 0
  br i1 %105, label %106, label %111

106:                                              ; preds = %87
  %107 = load ptr, ptr %11, align 8, !tbaa !23
  %108 = icmp eq ptr %107, null
  br i1 %108, label %110, label %109

109:                                              ; preds = %106
  call void @_ZN6icu_778RBBINodeD1Ev(ptr noundef nonnull align 8 dereferenceable(160) %107) #10
  call void @_ZN6icu_777UMemorydlEPv(ptr noundef %107) #10
  br label %110

110:                                              ; preds = %109, %106
  store i32 1, ptr %10, align 4
  br label %119

111:                                              ; preds = %87
  %112 = getelementptr inbounds nuw %"class.icu_77::RBBINode", ptr %14, i32 0, i32 3
  %113 = load ptr, ptr %112, align 8, !tbaa !37
  %114 = getelementptr inbounds nuw %"class.icu_77::RBBINode", ptr %113, i32 0, i32 1
  store ptr %14, ptr %114, align 8, !tbaa !35
  %115 = load ptr, ptr %11, align 8, !tbaa !23
  %116 = icmp eq ptr %115, null
  br i1 %116, label %118, label %117

117:                                              ; preds = %111
  call void @_ZN6icu_778RBBINodeD1Ev(ptr noundef nonnull align 8 dereferenceable(160) %115) #10
  call void @_ZN6icu_777UMemorydlEPv(ptr noundef %115) #10
  br label %118

118:                                              ; preds = %117, %111
  store i32 0, ptr %10, align 4
  br label %119

119:                                              ; preds = %118, %110
  call void @llvm.lifetime.end.p0(i64 8, ptr %13) #10
  call void @llvm.lifetime.end.p0(i64 8, ptr %12) #10
  call void @llvm.lifetime.end.p0(i64 8, ptr %11) #10
  %120 = load i32, ptr %10, align 4
  switch i32 %120, label %130 [
    i32 0, label %121
    i32 1, label %129
  ]

121:                                              ; preds = %119
  br label %128

122:                                              ; preds = %81
  %123 = getelementptr inbounds nuw %"class.icu_77::RBBINode", ptr %14, i32 0, i32 3
  %124 = load ptr, ptr %123, align 8, !tbaa !37
  %125 = load ptr, ptr %5, align 8, !tbaa !22
  %126 = load i32, ptr %6, align 4, !tbaa !14
  %127 = add nsw i32 %126, 1
  call void @_ZN6icu_778RBBINode11flattenSetsER10UErrorCodei(ptr noundef nonnull align 8 dereferenceable(160) %124, ptr noundef nonnull align 4 dereferenceable(4) %125, i32 noundef %127)
  br label %128

128:                                              ; preds = %122, %121
  br label %129

129:                                              ; preds = %19, %23, %67, %119, %128, %77
  ret void

130:                                              ; preds = %119, %67
  unreachable
}